; Function Attrs: nounwind uwtable
define void @Gia_ManPrintReached_rec(ptr noundef readonly captures(none) %0, ptr noundef readonly captures(none) %1, i32 noundef %2, ptr noundef captures(none) %3, ptr noundef readonly captures(none) %4, i32 noundef %5) local_unnamed_addr #0 {
  %7 = getelementptr i8, ptr %4, i64 8
  %8 = getelementptr inbounds nuw i8, ptr %3, i64 4
  %.phi.trans.insert.i = getelementptr inbounds nuw i8, ptr %3, i64 8
  %9 = getelementptr i8, ptr %1, i64 8
  br label %tailrecurse

tailrecurse:                                      ; preds = %52, %6
  %.tr40 = phi i32 [ %2, %6 ], [ %54, %52 ]
  %.val33 = load ptr, ptr %7, align 8
  %10 = sext i32 %.tr40 to i64
  %11 = getelementptr inbounds i32, ptr %.val33, i64 %10
  %12 = load i32, ptr %11, align 4
  %13 = icmp eq i32 %12, %5
  br i1 %13, label %56, label %14

14:                                               ; preds = %tailrecurse
  store i32 %5, ptr %11, align 4
  %15 = getelementptr inbounds i8, ptr %0, i64 %10
  %16 = load i8, ptr %15, align 1
  switch i8 %16, label %17 [
    i8 124, label %.thread
    i8 42, label %.thread
    i8 41, label %.thread
    i8 40, label %.thread
  ]

17:                                               ; preds = %14
  %18 = load i32, ptr %8, align 4
  %19 = load i32, ptr %3, align 8
  %20 = icmp eq i32 %18, %19
  br i1 %20, label %21, label %.Vec_IntGrow.exit10_crit_edge.i

.Vec_IntGrow.exit10_crit_edge.i:                  ; preds = %17
  %.pre.i = load ptr, ptr %.phi.trans.insert.i, align 8
  br label %41

21:                                               ; preds = %17
  %22 = icmp slt i32 %18, 16
  br i1 %22, label %23, label %30

23:                                               ; preds = %21
  %24 = load ptr, ptr %.phi.trans.insert.i, align 8
  %.not9.i.i = icmp eq ptr %24, null
  br i1 %.not9.i.i, label %27, label %25

25:                                               ; preds = %23
  %26 = tail call dereferenceable_or_null(64) ptr @realloc(ptr noundef nonnull %24, i64 noundef 64) #26
  br label %Vec_IntGrow.exit.i

27:                                               ; preds = %23
  %28 = tail call noalias dereferenceable_or_null(64) ptr @malloc(i64 noundef 64) #25
  br label %Vec_IntGrow.exit.i

Vec_IntGrow.exit.i:                               ; preds = %27, %25
  %29 = phi ptr [ %26, %25 ], [ %28, %27 ]
  store ptr %29, ptr %.phi.trans.insert.i, align 8
  store i32 16, ptr %3, align 8
  br label %41

30:                                               ; preds = %21
  %31 = shl nuw nsw i32 %18, 1
  %32 = load ptr, ptr %.phi.trans.insert.i, align 8
  %.not9.i9.i = icmp eq ptr %32, null
  %33 = zext nneg i32 %31 to i64
  %34 = shl nuw nsw i64 %33, 2
  br i1 %.not9.i9.i, label %37, label %35

35:                                               ; preds = %30
  %36 = tail call ptr @realloc(ptr noundef nonnull %32, i64 noundef %34) #26
  br label %39

37:                                               ; preds = %30
  %38 = tail call noalias ptr @malloc(i64 noundef %34) #25
  br label %39

39:                                               ; preds = %37, %35
  %40 = phi ptr [ %36, %35 ], [ %38, %37 ]
  store ptr %40, ptr %.phi.trans.insert.i, align 8
  store i32 %31, ptr %3, align 8
  br label %41

41:                                               ; preds = %39, %Vec_IntGrow.exit.i, %.Vec_IntGrow.exit10_crit_edge.i
  %42 = phi ptr [ %.pre.i, %.Vec_IntGrow.exit10_crit_edge.i ], [ %40, %39 ], [ %29, %Vec_IntGrow.exit.i ]
  %43 = load i32, ptr %8, align 4
  %44 = add nsw i32 %43, 1
  store i32 %44, ptr %8, align 4
  %45 = sext i32 %43 to i64
  %46 = getelementptr inbounds i32, ptr %42, i64 %45
  store i32 %.tr40, ptr %46, align 4
  %.pre = load i8, ptr %15, align 1
  %47 = icmp eq i8 %.pre, 0
  br i1 %47, label %56, label %.thread

.thread:                                          ; preds = %14, %14, %14, %14, %41
  %48 = phi i8 [ %.pre, %41 ], [ %16, %14 ], [ %16, %14 ], [ %16, %14 ], [ %16, %14 ]
  %49 = add i8 %48, -43
  %switch.i36 = icmp ult i8 %49, -3
  br i1 %switch.i36, label %52, label %50

50:                                               ; preds = %.thread
  %51 = add nsw i32 %.tr40, 1
  tail call void @Gia_ManPrintReached_rec(ptr noundef nonnull %0, ptr noundef %1, i32 noundef %51, ptr noundef %3, ptr noundef nonnull %4, i32 noundef %5)
  br label %52

52:                                               ; preds = %.thread, %50
  %.val32 = load ptr, ptr %9, align 8
  %53 = getelementptr inbounds i32, ptr %.val32, i64 %10
  %54 = load i32, ptr %53, align 4
  %55 = icmp sgt i32 %54, -1
  br i1 %55, label %tailrecurse, label %56

56:                                               ; preds = %41, %tailrecurse, %52
  ret void
}